target datalayout = "e-m:e-p270:32:32-p271:32:32-p272:64:64-i64:64-i128:128-f80:128-n8:16:32:64-S128"
target triple = "x86_64-pc-linux-gnu"

; Function Attrs: mustprogress uwtable
define noundef zeroext i1 @_ZN5draco24MeshAttributeCornerTable17RecomputeVerticesEPKNS_4MeshEPKNS_14PointAttributeE(ptr noundef nonnull align 8 dereferenceable(224) %0, ptr noundef %1, ptr noundef %2) #4 align 2 {
  %4 = alloca i1, align 1
  %5 = alloca ptr, align 8
  %6 = alloca ptr, align 8
  %7 = alloca ptr, align 8
  store ptr %0, ptr %5, align 8, !tbaa !3
  store ptr %1, ptr %6, align 8, !tbaa !80
  store ptr %2, ptr %7, align 8, !tbaa !82
  %8 = load ptr, ptr %5, align 8
  %9 = load ptr, ptr %6, align 8, !tbaa !80
  %10 = icmp ne ptr %9, null
  br i1 %10, label %11, label %18

11:                                               ; preds = %3
  %12 = load ptr, ptr %7, align 8, !tbaa !82
  %13 = icmp ne ptr %12, null
  br i1 %13, label %14, label %18

14:                                               ; preds = %11
  %15 = load ptr, ptr %6, align 8, !tbaa !80
  %16 = load ptr, ptr %7, align 8, !tbaa !82
  %17 = call noundef zeroext i1 @_ZN5draco24MeshAttributeCornerTable25RecomputeVerticesInternalILb1EEEbPKNS_4MeshEPKNS_14PointAttributeE(ptr noundef nonnull align 8 dereferenceable(224) %8, ptr noundef %15, ptr noundef %16)
  store i1 %17, ptr %4, align 1
  br label %20

18:                                               ; preds = %11, %3
  %19 = call noundef zeroext i1 @_ZN5draco24MeshAttributeCornerTable25RecomputeVerticesInternalILb0EEEbPKNS_4MeshEPKNS_14PointAttributeE(ptr noundef nonnull align 8 dereferenceable(224) %8, ptr noundef null, ptr noundef null)
  store i1 %19, ptr %4, align 1
  br label %20

20:                                               ; preds = %18, %14
  %21 = load i1, ptr %4, align 1
  ret i1 %21
}