; Function Attrs: mustprogress uwtable
define noundef zeroext i1 @_ZN5draco24MeshAttributeCornerTable17RecomputeVerticesEPKNS_4MeshEPKNS_14PointAttributeE(ptr noundef nonnull align 8 dereferenceable(224) %0, ptr noundef %1, ptr noundef %2) local_unnamed_addr #4 align 2 {
  %4 = icmp ne ptr %1, null
  %5 = icmp ne ptr %2, null
  %or.cond = and i1 %4, %5
  br i1 %or.cond, label %6, label %8

6:                                                ; preds = %3
  %7 = tail call noundef zeroext i1 @_ZN5draco24MeshAttributeCornerTable25RecomputeVerticesInternalILb1EEEbPKNS_4MeshEPKNS_14PointAttributeE(ptr noundef nonnull align 8 dereferenceable(224) %0, ptr noundef nonnull %1, ptr noundef nonnull %2)
  br label %10

8:                                                ; preds = %3
  %9 = tail call noundef zeroext i1 @_ZN5draco24MeshAttributeCornerTable25RecomputeVerticesInternalILb0EEEbPKNS_4MeshEPKNS_14PointAttributeE(ptr noundef nonnull align 8 dereferenceable(224) %0, ptr noundef null, ptr noundef null)
  br label %10

10:                                               ; preds = %8, %6
  %.0 = phi i1 [ %7, %6 ], [ %9, %8 ]
  ret i1 %.0
}